
> v8_run@1.0.0 ex /Users/javierca/Documents/Develop/slumps/utils/bytecode_dump
> node --print-wasm-code --no-warnings --experimental-wasi-unstable-preview1 --experimental-wasm-bigint  try_to_execute.js  

--- WebAssembly code ---
index: 5
kind: wasm function
compiler: Liftoff
Body (size = 160 = 153 + 7 padding)
Instructions (size = 132)
--- WebAssembly code ---
index: 4
kind: wasm function
compiler: Liftoff
Body (size = 0x2f244f8043c0     0  55             push rbp
0x2f244f8043c1     1  4889e5         REX.W movq rbp,rsp
0x2f244f8043c4     4  6a0a           push 0xa
0x2f244f8043c6     6  4881ec18000000 REX.W subq rsp,0x18
192 = 169 + 23 padding)
Instructions (size = 148)
0x2f244f8043cd     d  488975f0       REX.W movq [rbp-0x10],rsi
0x2f244f8043d1    11  488b75f0       REX.W movq rsi,[rbp-0x10]
0x2f244f8043d5    15  488b762f       REX.W movq rsi,[rsi+0x2f]
0x2f244f8043d9    19  483b26         REX.W cmpq rsp,[rsi]
0x2f244f804460     0  55             push rbp
0x2f244f804461     1  4889e5         REX.W movq rbp,rsp
0x2f244f804464     4  6a0a           push 0xa
0x2f244f804466     6  4881ec18000000 REX.W subq rsp,0x18
0x2f244f80446d     d  488975f0       REX.W movq [rbp-0x10],rsi
0x2f244f8043dc    1c  0f864b000000   jna 0x2f244f80442d  <+0x6d>
0x2f244f8043e2    22  8bf0           movl rsi,rax
0x2f244f8043e4    24  8bfa           movl rdi,rdx
0x2f244f8043e6    26  48c1e720       REX.W shlq rdi, 32
0x2f244f804471    11  488b75f0       REX.W movq rsi,[rbp-0x10]
0x2f244f804475    15  488b762f       REX.W movq rsi,[rsi+0x2f]
0x2f244f804479    19  483b26         REX.W cmpq rsp,[rsi]
0x2f244f80447c    1c  0f865c000000   jna 0x2f244f8044de  <+0x7e>
0x2f244f8043ea    2a  480bf7         REX.W orq rsi,rdi
0x2f244f8043ed    2d  8bf9           movl rdi,rcx
0x2f244f8043ef    2f  448bcb         movl r9,rbx
0x2f244f8043f2    32  49c1e120       REX.W shlq r9, 32
0x2f244f8043f6    36  490bf9         REX.W orq rdi,r9
0x2f244f8043f9    39  8955e8         movl [rbp-0x18],rdx
0x2f244f8043fc    3c  8945ec         movl [rbp-0x14],rax
0x2f244f8043ff    3f  4885ff         REX.W testq rdi,rdi
0x2f244f804482    22  8bf0           movl rsi,rax
0x2f244f804484    24  8bfa           movl rdi,rdx
0x2f244f804486    26  48c1e720       REX.W shlq rdi, 32
0x2f244f80448a    2a  480bf7         REX.W orq rsi,rdi
0x2f244f80448d    2d  8bf9           movl rdi,rcx
0x2f244f80448f    2f  448bcb         movl r9,rbx
0x2f244f804492    32  49c1e120       REX.W shlq r9, 32
0x2f244f804496    36  490bf9         REX.W orq rdi,r9
0x2f244f804499    39  8955e8         movl [rbp-0x18],rdx
0x2f244f80449c    3c  8945ec         movl [rbp-0x14],rax
0x2f244f80449f    3f  4885ff         REX.W testq rdi,rdi
0x2f244f8044a2    42  0f8445000000   jz 0x2f244f8044ed  <+0x8d>
0x2f244f804402    42  0f8434000000   jz 0x2f244f80443c  <+0x7c>0x2f244f8044a8    48  4883ffff       REX.W cmpq rdi,0xff

0x2f244f8044ac    4c  0f8507000000   jnz 0x2f244f8044b9  <+0x59>
0x2f244f804408    48  488bc6         REX.W movq rax,rsi
0x2f244f80440b    4b  33d2           xorl rdx,rdx
0x2f244f80440d    4d  48f7f7         REX.W divq rdi0x2f244f8044b2    52  33f6           xorl rsi,rsi
0x2f244f8044b4    54  e90b000000     jmp 0x2f244f8044c4  <+0x64>
0x2f244f8044b9    59  488bc6         REX.W movq rax,rsi
0x2f244f8044bc    5c  4899           REX.W cdqq
0x2f244f8044be    5e  48f7ff         REX.W idivq rdi

0x2f244f804410    50  488bf2         REX.W movq rsi,rdx
0x2f244f804413    53  488bc6         REX.W movq rax,rsi
0x2f244f804416    56  48c1f820       REX.W sarq rax, 32
0x2f244f80441a    5a  8bc0           movl rax,rax
0x2f244f80441c    5c  488b55f0       REX.W movq rdx,[rbp-0x10]
0x2f244f8044c1    61  488bf2         REX.W movq rsi,rdx
0x2f244f8044c4    64  488bc6         REX.W movq rax,rsi
0x2f244f8044c7    67  48c1f820       REX.W sarq rax, 32
0x2f244f8044cb    6b  8bc0           movl rax,rax
0x2f244f804420    60  488b5267       REX.W movq rdx,[rdx+0x67]
0x2f244f804424    64  8902           movl [rdx],rax
0x2f244f804426    66  8bc6           movl rax,rsi
0x2f244f804428    68  488be5         REX.W movq rsp,rbp
0x2f244f8044cd    6d  488b55f0       REX.W movq rdx,[rbp-0x10]
0x2f244f8044d1    71  488b5267       REX.W movq rdx,[rdx+0x67]
0x2f244f8044d5    75  8902           movl [rdx],rax
0x2f244f8044d7    77  8bc6           movl rax,rsi
0x2f244f8044d9    79  488be5         REX.W movq rsp,rbp
0x2f244f8044dc    7c  5d             pop rbp
0x2f244f80442b    6b  5d             pop rbp
0x2f244f80442c    6c  c3             retl
0x2f244f80442d    6d  50             push rax
0x2f244f80442e    6e  51             push rcx
0x2f244f80442f    6f  52             push rdx
0x2f244f804430    70  53             push rbx
0x2f244f804431    71  e84afeffff     call 0x2f244f804280     ;; wasm stub: WasmStackGuard
0x2f244f804436    76  5b             pop rbx
0x2f244f804437    77  5a             pop rdx
0x2f244f804438    78  59             pop rcx
0x2f244f804439    79  58             pop rax
0x2f244f8044dd    7d  c3             retl
0x2f244f8044de    7e  50             push rax
0x2f244f8044df    7f  51             push rcx
0x2f244f8044e0    80  52             push rdx
0x2f244f8044e1    81  53             push rbx
0x2f244f8044e2    82  e899fdffff     call 0x2f244f804280     ;; wasm stub: WasmStackGuard
0x2f244f8044e7    87  5b             pop rbx
0x2f244f8044e8    88  5a             pop rdx
0x2f244f8044e9    89  59             pop rcx
0x2f244f8044ea    8a  58             pop rax
0x2f244f8044eb    8b  eb95           jmp 0x2f244f804482  <+0x22>
0x2f244f8044ed    8d  e89efbffff     call 0x2f244f804090     ;; wasm stub: ThrowWasmTrapRemByZero
0x2f244f80443a    7a  eba6           jmp 0x2f244f8043e2  <+0x22>
0x2f244f8044f2    92  6690           nop

Source positions:
 pc offset  position
        82         0  statement
        8d        23  statement

Safepoints (size = 21)
0x2f254f80445fffffffff  000 (sp -> fp)

RelocInfo (size = 4)
0x2f244f8044e3  wasm stub call
0x2f244f8044ee  wasm stub call

--- End code ---
0x2f244f80443c    7c  e84ffcffff     call 0x2f244f804090     ;; wasm stub: ThrowWasmTrapRemByZero
--- WebAssembly code ---
index: 3
kind: wasm function
compiler: Liftoff
Body (size = 160 = 153 + 7 padding)
Instructions (size = 132)
0x2f244f804520     0  55             push rbp
0x2f244f804521     1  4889e5         REX.W movq rbp,rsp
0x2f244f804524     4  6a0a           push 0xa
0x2f244f804441    81  0f1f00         nop

Source positions:
 pc offset  position
        71         0  statement
        7c        23  statement

Safepoints (size = 21)
0x2f254f8043bfffffffff  000 (sp -> fp)

RelocInfo (size = 4)
0x2f244f804432  wasm stub call
0x2f244f80443d  wasm stub call

--- End code ---
0x2f244f804526     6  4881ec18000000 REX.W subq rsp,0x18
0x2f244f80452d     d  488975f0       REX.W movq [rbp-0x10],rsi
0x2f244f804531    11  488b75f0       REX.W movq rsi,[rbp-0x10]
--- WebAssembly code ---
index: 2
kind: wasm function
compiler: Liftoff
Body (size = 192 = 177 + 15 padding)
Instructions (size = 156)
0x2f244f8045c0     0  55             push rbp
0x2f244f8045c1     1  4889e5         REX.W movq rbp,rsp
0x2f244f8045c4     4  6a0a           push 0xa
0x2f244f8045c6     6  4881ec18000000 REX.W subq rsp,0x18
0x2f244f8045cd     d  488975f0       REX.W movq [rbp-0x10],rsi
0x2f244f8045d1    11  488b75f0       REX.W movq rsi,[rbp-0x10]
0x2f244f8045d5    15  488b762f       REX.W movq rsi,[rsi+0x2f]
0x2f244f8045d9    19  483b26         REX.W cmpq rsp,[rsi]
0x2f244f8045dc    1c  0f865f000000   jna 0x2f244f804641  <+0x81>
0x2f244f8045e2    22  8bf0           movl rsi,rax
0x2f244f8045e4    24  8bfa           movl rdi,rdx
0x2f244f8045e6    26  48c1e720       REX.W shlq rdi, 32
0x2f244f8045ea    2a  480bf7         REX.W orq rsi,rdi
0x2f244f8045ed    2d  8bf9           movl rdi,rcx
0x2f244f8045ef    2f  448bcb         movl r9,rbx
0x2f244f8045f2    32  49c1e120       REX.W shlq r9, 32
0x2f244f8045f6    36  490bf9         REX.W orq rdi,r9
0x2f244f8045f9    39  8955e8         movl [rbp-0x18],rdx
0x2f244f8045fc    3c  8945ec         movl [rbp-0x14],rax
0x2f244f8045ff    3f  4885ff         REX.W testq rdi,rdi
0x2f244f804602    42  0f8448000000   jz 0x2f244f804650  <+0x90>
0x2f244f804608    48  4883ffff       REX.W cmpq rdi,0xff
0x2f244f80460c    4c  0f850a000000   jnz 0x2f244f80461c  <+0x5c>
0x2f244f804612    52  4883fe01       REX.W cmpq rsi,0x1
0x2f244f804616    56  0f8039000000   jo 0x2f244f804655  <+0x95>
0x2f244f80461c    5c  488bc6         REX.W movq rax,rsi
0x2f244f80461f    5f  4899           REX.W cdqq
0x2f244f804621    61  48f7ff         REX.W idivq rdi
0x2f244f804624    64  488bf0         REX.W movq rsi,rax
0x2f244f804627    67  488bc6         REX.W movq rax,rsi
0x2f244f80462a    6a  48c1f820       REX.W sarq rax, 32
0x2f244f80462e    6e  8bc0           movl rax,rax
0x2f244f804630    70  488b55f0       REX.W movq rdx,[rbp-0x10]
0x2f244f804634    74  488b5267       REX.W movq rdx,[rdx+0x67]
0x2f244f804638    78  8902           movl [rdx],rax
0x2f244f804535    15  488b762f       REX.W movq rsi,[rsi+0x2f]
0x2f244f80463a    7a  8bc6           movl rax,rsi
0x2f244f80463c    7c  488be5         REX.W movq rsp,rbp
0x2f244f80463f    7f  5d             pop rbp
0x2f244f804640    80  c3             retl
0x2f244f804641    81  50             push rax
0x2f244f804642    82  51             push rcx
0x2f244f804643    83  52             push rdx
0x2f244f804644    84  53             push rbx
0x2f244f804645    85  e836fcffff     call 0x2f244f804280     ;; wasm stub: WasmStackGuard
0x2f244f80464a    8a  5b             pop rbx
0x2f244f80464b    8b  5a             pop rdx
0x2f244f80464c    8c  59             pop rcx
0x2f244f80464d    8d  58             pop rax
0x2f244f80464e    8e  eb92           jmp 0x2f244f8045e2  <+0x22>
0x2f244f804650    90  e81bfaffff     call 0x2f244f804070     ;; wasm stub: ThrowWasmTrapDivByZero
0x2f244f804655    95  e826faffff     call 0x2f244f804080     ;; wasm stub: ThrowWasmTrapDivUnrepresentable
0x2f244f80465a    9a  6690           nop

Source positions:
 pc offset  position
        85         0  statement
        90        23  statement
        95        23  statement

Safepoints (size = 21)
0x2f254f8045bfffffffff  000 (sp -> fp)

RelocInfo (size = 5)
0x2f244f804646  wasm stub call
0x2f244f804651  wasm stub call
0x2f244f804656  wasm stub call

--- End code ---
--- WebAssembly code ---
index: 1
kind: wasm function
compiler: Liftoff
Body (size = 160 = 129 + 31 padding)
Instructions (size = 108)
0x2f244f804680     0  55             push rbp
0x2f244f804681     1  4889e5         REX.W movq rbp,rsp
0x2f244f804684     4  6a0a           push 0xa
0x2f244f804686     6  4881ec10000000 REX.W subq rsp,0x10
0x2f244f80468d     d  488975f0       REX.W movq [rbp-0x10],rsi
0x2f244f804691    11  488b75f0       REX.W movq rsi,[rbp-0x10]
0x2f244f804695    15  488b762f       REX.W movq rsi,[rsi+0x2f]
0x2f244f804699    19  483b26         REX.W cmpq rsp,[rsi]
0x2f244f80469c    1c  0f8638000000   jna 0x2f244f8046da  <+0x5a>
0x2f244f8046a2    22  8bf0           movl rsi,rax
0x2f244f8046a4    24  8bfa           movl rdi,rdx
0x2f244f8046a6    26  48c1e720       REX.W shlq rdi, 32
0x2f244f8046aa    2a  480bf7         REX.W orq rsi,rdi
0x2f244f8046ad    2d  8bf9           movl rdi,rcx
0x2f244f8046af    2f  448bcb         movl r9,rbx
0x2f244f8046b2    32  49c1e120       REX.W shlq r9, 32
0x2f244f8046b6    36  490bf9         REX.W orq rdi,r9
0x2f244f8046b9    39  480faff7       REX.W imulq rsi,rdi
0x2f244f8046bd    3d  488bfe         REX.W movq rdi,rsi
0x2f244f8046c0    40  48c1ff20       REX.W sarq rdi, 32
0x2f244f8046c4    44  8bff           movl rdi,rdi
0x2f244f8046c6    46  4c8b4df0       REX.W movq r9,[rbp-0x10]
0x2f244f8046ca    4a  4d8b4967       REX.W movq r9,[r9+0x67]
0x2f244f8046ce    4e  418939         movl [r9],rdi
0x2f244f8046d1    51  8bfe           movl rdi,rsi
0x2f244f8046d3    53  8bc7           movl rax,rdi
0x2f244f804539    19  483b26         REX.W cmpq rsp,[rsi]
0x2f244f8046d5    55  488be5         REX.W movq rsp,rbp
0x2f244f8046d8    58  5d             pop rbp
0x2f244f8046d9    59  c3             retl
0x2f244f8046da    5a  50             push rax
0x2f244f8046db    5b  51             push rcx
0x2f244f8046dc    5c  52             push rdx
0x2f244f8046dd    5d  53             push rbx
0x2f244f80453c    1c  0f864b000000   jna 0x2f244f80458d  <+0x6d>0x2f244f8046de    5e  e89dfbffff     call 0x2f244f804280     ;; wasm stub: WasmStackGuard

0x2f244f8046e3    63  5b             pop rbx
0x2f244f8046e4    64  5a             pop rdx
0x2f244f8046e5    65  59             pop rcx
0x2f244f8046e6    66  58             pop rax
0x2f244f8046e7    67  ebb9           jmp 0x2f244f8046a2  <+0x22>
0x2f244f804542    22  8bf0           movl rsi,rax
0x2f244f8046e9    69  0f1f00         nop

Source positions:
 pc offset  position
        5e         0  statement

Safepoints (size = 21)
0x2f244f8046e3    63  00 (sp -> fp)

RelocInfo (size = 3)
0x2f244f8046df  wasm stub call

--- End code ---
0x2f244f804544    24  8bfa           movl rdi,rdx
0x2f244f804546    26  48c1e720       REX.W shlq rdi, 32
0x2f244f80454a    2a  480bf7         REX.W orq rsi,rdi
0x2f244f80454d    2d  8bf9           movl rdi,rcx
0x2f244f80454f    2f  448bcb         movl r9,rbx
--- WebAssembly code ---
index: 0
kind: wasm function
compiler: Liftoff
Body (size = 0x2f244f804552    32  49c1e120       REX.W shlq r9, 32
96 = 81 + 15 padding)
Instructions (size = 60)
0x2f244f804556    36  490bf9         REX.W orq rdi,r9
0x2f244f804720     0  55             push rbp
0x2f244f804559    39  8955e8         movl [rbp-0x18],rdx
0x2f244f804721     1  4889e5         REX.W movq rbp,rsp
0x2f244f804724     4  6a0a           push 0xa
0x2f244f80455c    3c  8945ec         movl [rbp-0x14],rax
0x2f244f80455f    3f  4885ff         REX.W testq rdi,rdi
0x2f244f804562    42  0f8434000000   jz 0x2f244f80459c  <+0x7c>
0x2f244f804726     6  4881ec10000000 REX.W subq rsp,0x10
0x2f244f804568    48  488bc6         REX.W movq rax,rsi
0x2f244f80472d     d  488975f0       REX.W movq [rbp-0x10],rsi
0x2f244f804731    11  488b45f0       REX.W movq rax,[rbp-0x10]
0x2f244f804735    15  488b402f       REX.W movq rax,[rax+0x2f]
0x2f244f804739    19  483b20         REX.W cmpq rsp,[rax]
0x2f244f80473c    1c  0f8611000000   jna 0x2f244f804753  <+0x33>
0x2f244f804742    22  488b45f0       REX.W movq rax,[rbp-0x10]
0x2f244f80456b    4b  33d2           xorl rdx,rdx
0x2f244f804746    26  488b4067       REX.W movq rax,[rax+0x67]
0x2f244f80474a    2a  8b08           movl rcx,[rax]
0x2f244f80474c    2c  8bc1           movl rax,rcx
0x2f244f80474e    2e  488be5         REX.W movq rsp,rbp
0x2f244f804751    31  5d             pop rbp
0x2f244f804752    32  c3             retl
0x2f244f80456d    4d  48f7f7         REX.W divq rdi
0x2f244f804753    33  e828fbffff     call 0x2f244f804280     ;; wasm stub: WasmStackGuard
0x2f244f804570    50  488bf0         REX.W movq rsi,rax
0x2f244f804758    38  ebe8           jmp 0x2f244f804742  <+0x22>
0x2f244f80475a    3a  6690           nop

Source positions:
 pc offset  position
        33         0  statement

Safepoints (size = 21)
0x2f244f804758    38  00 (sp -> fp)

RelocInfo (size = 1)
0x2f244f804754  wasm stub call

--- End code ---
0x2f244f804573    53  488bc6         REX.W movq rax,rsi
0x2f244f804576    56  48c1f820       REX.W sarq rax, 32
0x2f244f80457a    5a  8bc0           movl rax,rax
0x2f244f80457c    5c  488b55f0       REX.W movq rdx,[rbp-0x10]
0x2f244f804580    60  488b5267       REX.W movq rdx,[rdx+0x67]
0x2f244f804584    64  8902           movl [rdx],rax
0x2f244f804586    66  8bc6           movl rax,rsi
0x2f244f804588    68  488be5         REX.W movq rsp,rbp
0x2f244f80458b    6b  5d             pop rbp
0x2f244f80458c    6c  c3             retl
0x2f244f80458d    6d  50             push rax
0x2f244f80458e    6e  51             push rcx
0x2f244f80458f    6f  52             push rdx
0x2f244f804590    70  53             push rbx
0x2f244f804591    71  e8eafcffff     call 0x2f244f804280     ;; wasm stub: WasmStackGuard
0x2f244f804596    76  5b             pop rbx
0x2f244f804597    77  5a             pop rdx
0x2f244f804598    78  59             pop rcx
0x2f244f804599    79  58             pop rax
0x2f244f80459a    7a  eba6           jmp 0x2f244f804542  <+0x22>
0x2f244f80459c    7c  e8cffaffff     call 0x2f244f804070     ;; wasm stub: ThrowWasmTrapDivByZero
0x2f244f8045a1    81  0f1f00         nop

Source positions:
 pc offset  position
        71         0  statement
        7c        23  statement

Safepoints (size = 21)
0x2f254f80451fffffffff  000 (sp -> fp)

RelocInfo (size = 4)
0x2f244f804592  wasm stub call
0x2f244f80459d  wasm stub call

--- End code ---
--- WebAssembly code ---
index: 5
kind: wasm function
compiler: TurboFan
Body (size = 96 = 93 + 3 padding)
Instructions (size = 72)
0x2f244f804780     0  55             push rbp
0x2f244f804781     1  4889e5         REX.W movq rbp,rsp
0x2f244f804784     4  6a0a           push 0xa
0x2f244f804786     6  56             push rsi
0x2f244f804787     7  48c1e320       REX.W shlq rbx, 32
0x2f244f80478b     b  8bc9           movl rcx,rcx
0x2f244f80478d     d  480bd9         REX.W orq rbx,rcx
0x2f244f804790    10  48c1e220       REX.W shlq rdx, 32
0x2f244f804794    14  8bc8           movl rcx,rax
0x2f244f804796    16  4883fb00       REX.W cmpq rbx,0x0
0x2f244f80479a    1a  0f841f000000   jz 0x2f244f8047bf  <+0x3f>
0x2f244f8047a0    20  480bd1         REX.W orq rdx,rcx
0x2f244f8047a3    23  488bc2         REX.W movq rax,rdx
0x2f244f8047a6    26  33d2           xorl rdx,rdx
0x2f244f8047a8    28  48f7f3         REX.W divq rbx
0x2f244f8047ab    2b  488bda         REX.W movq rbx,rdx
0x2f244f8047ae    2e  48c1fb20       REX.W sarq rbx, 32
0x2f244f8047b2    32  488b4e67       REX.W movq rcx,[rsi+0x67]
0x2f244f8047b6    36  8919           movl [rcx],rbx
0x2f244f8047b8    38  8bc2           movl rax,rdx
0x2f244f8047ba    3a  488be5         REX.W movq rsp,rbp
0x2f244f8047bd    3d  5d             pop rbp
0x2f244f8047be    3e  c3             retl
0x2f244f8047bf    3f  e8ccf8ffff     call 0x2f244f804090     ;; wasm stub: ThrowWasmTrapRemByZero
0x2f244f8047c4    44  90             nop
0x2f244f8047c5    45  0f1f00         nop

Source positions:
 pc offset  position
        3f        23

Safepoints (size = 21)
0x2f244f8047c4    44  0000 (sp -> fp)

RelocInfo (size = 3)
0x2f244f8047c0  wasm stub call

--- End code ---
--- WebAssembly code ---
index: 4
kind: wasm function
compiler: TurboFan
Body (size = 128 = 109 + 19 padding)
Instructions (size = 88)
0x2f244f8047e0     0  55             push rbp
0x2f244f8047e1     1  4889e5         REX.W movq rbp,rsp
0x2f244f8047e4     4  6a0a           push 0xa
0x2f244f8047e6     6  56             push rsi
0x2f244f8047e7     7  48c1e320       REX.W shlq rbx, 32
0x2f244f8047eb     b  8bc9           movl rcx,rcx
0x2f244f8047ed     d  480bd9         REX.W orq rbx,rcx
0x2f244f8047f0    10  4883fb00       REX.W cmpq rbx,0x0
0x2f244f8047f4    14  0f8436000000   jz 0x2f244f804830  <+0x50>
0x2f244f8047fa    1a  4883fbff       REX.W cmpq rbx,0xff
0x2f244f8047fe    1e  0f8416000000   jz 0x2f244f80481a  <+0x3a>
0x2f244f804804    24  48c1e220       REX.W shlq rdx, 32
0x2f244f804808    28  8bc8           movl rcx,rax
0x2f244f80480a    2a  480bd1         REX.W orq rdx,rcx
0x2f244f80480d    2d  488bc2         REX.W movq rax,rdx
0x2f244f804810    30  4899           REX.W cdqq
0x2f244f804812    32  48f7fb         REX.W idivq rbx
0x2f244f804815    35  e902000000     jmp 0x2f244f80481c  <+0x3c>
0x2f244f80481a    3a  33d2           xorl rdx,rdx
0x2f244f80481c    3c  488bda         REX.W movq rbx,rdx
0x2f244f80481f    3f  48c1fb20       REX.W sarq rbx, 32
0x2f244f804823    43  488b4e67       REX.W movq rcx,[rsi+0x67]
0x2f244f804827    47  8919           movl [rcx],rbx
0x2f244f804829    49  8bc2           movl rax,rdx
0x2f244f80482b    4b  488be5         REX.W movq rsp,rbp
0x2f244f80482e    4e  5d             pop rbp
0x2f244f80482f    4f  c3             retl
0x2f244f804830    50  e85bf8ffff     call 0x2f244f804090     ;; wasm stub: ThrowWasmTrapRemByZero
0x2f244f804835    55  90             nop
0x2f244f804836    56  6690           nop

Source positions:
 pc offset  position
        50        23

Safepoints (size = 21)
0x2f244f804835    55  0000 (sp -> fp)

RelocInfo (size = 3)
0x2f244f804831  wasm stub call

--- End code ---
--- WebAssembly code ---
index: 3
kind: wasm function
compiler: TurboFan
Body (size = 96 = 93 + 3 padding)
Instructions (size = 72)
0x2f244f804860     0  55             push rbp
0x2f244f804861     1  4889e5         REX.W movq rbp,rsp
0x2f244f804864     4  6a0a           push 0xa
0x2f244f804866     6  56             push rsi
0x2f244f804867     7  48c1e320       REX.W shlq rbx, 32
0x2f244f80486b     b  8bc9           movl rcx,rcx
0x2f244f80486d     d  480bd9         REX.W orq rbx,rcx
0x2f244f804870    10  48c1e220       REX.W shlq rdx, 32
0x2f244f804874    14  8bc8           movl rcx,rax
0x2f244f804876    16  4883fb00       REX.W cmpq rbx,0x0
0x2f244f80487a    1a  0f841f000000   jz 0x2f244f80489f  <+0x3f>
0x2f244f804880    20  480bd1         REX.W orq rdx,rcx
0x2f244f804883    23  488bc2         REX.W movq rax,rdx
0x2f244f804886    26  33d2           xorl rdx,rdx
0x2f244f804888    28  48f7f3         REX.W divq rbx
0x2f244f80488b    2b  488bd8         REX.W movq rbx,rax
0x2f244f80488e    2e  48c1fb20       REX.W sarq rbx, 32
0x2f244f804892    32  488b5667       REX.W movq rdx,[rsi+0x67]
0x2f244f804896    36  891a           movl [rdx],rbx
0x2f244f804898    38  8bc0           movl rax,rax
0x2f244f80489a    3a  488be5         REX.W movq rsp,rbp
0x2f244f80489d    3d  5d             pop rbp
0x2f244f80489e    3e  c3             retl
0x2f244f80489f    3f  e8ccf7ffff     call 0x2f244f804070     ;; wasm stub: ThrowWasmTrapDivByZero
0x2f244f8048a4    44  90             nop
0x2f244f8048a5    45  0f1f00         nop

Source positions:
 pc offset  position
        3f        23

Safepoints (size = 21)
0x2f244f8048a4    44  0000 (sp -> fp)

RelocInfo (size = 3)
0x2f244f8048a0  wasm stub call

--- End code ---
--- WebAssembly code ---
index: 2
kind: wasm function
compiler: TurboFan
Body (size = 160 = 129 + 31 padding)
Instructions (size = 108)
0x2f244f8048c0     0  55             push rbp
0x2f244f8048c1     1  4889e5         REX.W movq rbp,rsp
0x2f244f8048c4     4  6a0a           push 0xa
0x2f244f8048c6     6  56             push rsi
0x2f244f8048c7     7  48c1e320       REX.W shlq rbx, 32
0x2f244f8048cb     b  8bc9           movl rcx,rcx
0x2f244f8048cd     d  480bd9         REX.W orq rbx,rcx
0x2f244f8048d0    10  4883fb00       REX.W cmpq rbx,0x0
0x2f244f8048d4    14  0f8449000000   jz 0x2f244f804923  <+0x63>
0x2f244f8048da    1a  48c1e220       REX.W shlq rdx, 32
0x2f244f8048de    1e  8bc8           movl rcx,rax
0x2f244f8048e0    20  480bd1         REX.W orq rdx,rcx
0x2f244f8048e3    23  4883fbff       REX.W cmpq rbx,0xff
0x2f244f8048e7    27  0f841c000000   jz 0x2f244f804909  <+0x49>
0x2f244f8048ed    2d  488bc2         REX.W movq rax,rdx
0x2f244f8048f0    30  4899           REX.W cdqq
0x2f244f8048f2    32  48f7fb         REX.W idivq rbx
0x2f244f8048f5    35  488bd8         REX.W movq rbx,rax
0x2f244f8048f8    38  48c1fb20       REX.W sarq rbx, 32
0x2f244f8048fc    3c  488b5667       REX.W movq rdx,[rsi+0x67]
0x2f244f804900    40  891a           movl [rdx],rbx
0x2f244f804902    42  8bc0           movl rax,rax
0x2f244f804904    44  488be5         REX.W movq rsp,rbp
0x2f244f804907    47  5d             pop rbp
0x2f244f804908    48  c3             retl
0x2f244f804909    49  48b90000000000000080 REX.W movq rcx,0x8000000000000000
0x2f244f804913    53  483bca         REX.W cmpq rcx,rdx
0x2f244f804916    56  0f8402000000   jz 0x2f244f80491e  <+0x5e>
0x2f244f80491c    5c  ebcf           jmp 0x2f244f8048ed  <+0x2d>
0x2f244f80491e    5e  e85df7ffff     call 0x2f244f804080     ;; wasm stub: ThrowWasmTrapDivUnrepresentable
0x2f244f804923    63  e848f7ffff     call 0x2f244f804070     ;; wasm stub: ThrowWasmTrapDivByZero
0x2f244f804928    68  90             nop
0x2f244f804929    69  0f1f00         nop

Source positions:
 pc offset  position
        5e        23

Safepoints (size = 21)
0x2f254f8048bfffffffff  0000 (sp -> fp)

RelocInfo (size = 4)
0x2f244f80491f  wasm stub call
0x2f244f804924  wasm stub call

--- End code ---
--- WebAssembly code ---
index: 1
kind: wasm function
compiler: TurboFan
Body (size = 64 = 60 + 4 padding)
Instructions (size = 52)
0x2f244f804960     0  55             push rbp
0x2f244f804961     1  4889e5         REX.W movq rbp,rsp
0x2f244f804964     4  6a0a           push 0xa
0x2f244f804966     6  56             push rsi
0x2f244f804967     7  48c1e320       REX.W shlq rbx, 32
0x2f244f80496b     b  8bc9           movl rcx,rcx
0x2f244f80496d     d  48c1e220       REX.W shlq rdx, 32
0x2f244f804971    11  8bf8           movl rdi,rax
0x2f244f804973    13  480bd9         REX.W orq rbx,rcx
0x2f244f804976    16  480bd7         REX.W orq rdx,rdi
0x2f244f804979    19  480fafda       REX.W imulq rbx,rdx
0x2f244f80497d    1d  488bd3         REX.W movq rdx,rbx
0x2f244f804980    20  48c1fa20       REX.W sarq rdx, 32
0x2f244f804984    24  488b4e67       REX.W movq rcx,[rsi+0x67]
0x2f244f804988    28  8911           movl [rcx],rdx
0x2f244f80498a    2a  8bc3           movl rax,rbx
0x2f244f80498c    2c  488be5         REX.W movq rsp,rbp
0x2f244f80498f    2f  5d             pop rbp
0x2f244f804990    30  c3             retl
0x2f244f804991    31  90             nop
0x2f244f804992    32  6690           nop

Safepoints (size = 8)

RelocInfo (size = 0)

--- End code ---
--- WebAssembly code ---
index: 0
kind: wasm function
compiler: TurboFan
Body (size = 32 = 28 + 4 padding)
Instructions (size = 20)
0x2f244f8049a0     0  55             push rbp
0x2f244f8049a1     1  4889e5         REX.W movq rbp,rsp
0x2f244f8049a4     4  6a0a           push 0xa
0x2f244f8049a6     6  56             push rsi
0x2f244f8049a7     7  488b5e67       REX.W movq rbx,[rsi+0x67]
0x2f244f8049ab     b  8b03           movl rax,[rbx]
0x2f244f8049ad     d  488be5         REX.W movq rsp,rbp
0x2f244f8049b0    10  5d             pop rbp
0x2f244f8049b1    11  c3             retl
0x2f244f8049b2    12  90             nop
0x2f244f8049b3    13  90             nop

Safepoints (size = 8)

RelocInfo (size = 0)

--- End code ---
--- WebAssembly code ---
index: 2
kind: wasm function
compiler: Liftoff
Body (size = 96 = 81 + 15 padding)
Instructions (size = 60)
0xd7595083a0     0  55             push rbp
0xd7595083a1     1  4889e5         REX.W movq rbp,rsp
0xd7595083a4     4  6a0a           push 0xa
0xd7595083a6     6  4881ec10000000 REX.W subq rsp,0x10
0xd7595083ad     d  488975f0       REX.W movq [rbp-0x10],rsi
0xd7595083b1    11  488b4df0       REX.W movq rcx,[rbp-0x10]
0xd7595083b5    15  488b492f       REX.W movq rcx,[rcx+0x2f]
0xd7595083b9    19  483b21         REX.W cmpq rsp,[rcx]
0xd7595083bc    1c  0f8611000000   jna 0xd7595083d3  <+0x33>
0xd7595083c2    22  b902000000     movl rcx,0x2
0xd7595083c7    27  0fafc8         imull rcx,rax
0xd7595083ca    2a  03c8           addl rcx,rax
0xd7595083cc    2c  8bc1           movl rax,rcx
0xd7595083ce    2e  488be5         REX.W movq rsp,rbp
0xd7595083d1    31  5d             pop rbp
0xd7595083d2    32  c3             retl
0xd7595083d3    33  50             push rax
0xd7595083d4    34  e8a7feffff     call 0xd759508280         ;; wasm stub: WasmStackGuard
0xd7595083d9    39  58             pop rax
0xd7595083da    3a  ebe6           jmp 0xd7595083c2  <+0x22>

Source positions:
 pc offset  position
        34         0  statement

Safepoints (size = 21)
0xd7595083d9    39  00 (sp -> fp)

RelocInfo (size = 1)
0xd7595083d5  wasm stub call

--- End code ---
--- WebAssembly code ---
index: 3
kind: wasm function
compiler: Liftoff
Body (size = 96 = 89 + 7 padding)
Instructions (size = 68)
--- WebAssembly code ---
index: 0xd759508400     0  55             push rbp
1
kind: wasm function
compiler: Liftoff
Body (size = 96 = 81 + 15 padding)
Instructions (size = 60)
0xd759508460     0  55             push rbp
0xd759508461     1  4889e5         REX.W movq rbp,rsp
0xd759508401     1  4889e5         REX.W movq rbp,rsp
0xd759508464     4  6a0a           push 0xa
0xd759508404     4  6a0a           push 0xa
0xd759508466     6  4881ec18000000 REX.W subq rsp,0x18
0xd75950846d     d  488975f0       REX.W movq [rbp-0x10],rsi
0xd759508471    11  488b45f0       REX.W movq rax,[rbp-0x10]
0xd759508475    15  488b402f       REX.W movq rax,[rax+0x2f]
0xd759508406     6  4881ec20000000 REX.W subq rsp,0x20
0xd759508479    19  483b20         REX.W cmpq rsp,[rax]
0xd75950847c    1c  0f8613000000   jna 0xd759508495  <+0x35>
0xd759508482    22  b80a000000     movl rax,0xa
0xd759508487    27  488b75f0       REX.W movq rsi,[rbp-0x10]
0xd75950848b    2b  e87afbffff     call 0xd75950800a         ;; internal wasm call
0xd759508490    30  488be5         REX.W movq rsp,rbp
0xd759508493    33  5d             pop rbp
0xd759508494    34  c3             retl
0xd75950840d     d  488975f0       REX.W movq [rbp-0x10],rsi0xd759508495    35  e8e6fdffff     call 0xd759508280         ;; wasm stub: WasmStackGuard
0xd75950849a    3a  ebe6           jmp 0xd759508482  <+0x22>


Source positions:
 pc offset  position
0xd759508411    11  488b4df0       REX.W movq rcx,[rbp-0x10]
        220xd759508415    15  488b492f       REX.W movq rcx,[rcx+0x2f]
         3  statement
        35         0  statement

Safepoints (size = 21)
0xd85950845fffffffff  000 (sp -> fp)

RelocInfo (size = 3)
0xd75950848c  internal wasm call
0xd759508496  wasm stub call

--- End code ---
0xd759508419    19  483b21         REX.W cmpq rsp,[rcx]
--- WebAssembly code ---
index: 0
kind: wasm function
compiler: Liftoff
Body (size = 96 = 69 + 27 padding)
Instructions (size = 48)
0xd7595084c0     0  55             push rbp
0xd7595084c1     1  4889e5         REX.W movq rbp,rsp
0xd7595084c4     4  6a0a           push 0xa
0xd75950841c    1c  0f8614000000   jna 0xd759508436  <+0x36>
0xd7595084c6     6  4881ec10000000 REX.W subq rsp,0x10
0xd759508422    22  8945ec         movl [rbp-0x14],rax
0xd7595084cd     d  488975f0       REX.W movq [rbp-0x10],rsi
0xd7595084d1    11  488b45f0       REX.W movq rax,[rbp-0x10]
0xd7595084d5    15  488b402f       REX.W movq rax,[rax+0x2f]
0xd759508425    25  8955e8         movl [rbp-0x18],rdx
0xd759508428    28  488b75f0       REX.W movq rsi,[rbp-0x10]
0xd7595084d9    19  483b20         REX.W cmpq rsp,[rax]
0xd7595084dc    1c  0f8605000000   jna 0xd7595084e7  <+0x27>
0xd7595084e2    22  488be5         REX.W movq rsp,rbp
0xd7595084e5    25  5d             pop rbp
0xd7595084e6    26  c3             retl
0xd75950842c    2c  e8d4fbffff     call 0xd759508005         ;; internal wasm call
0xd7595084e7    27  e894fdffff     call 0xd759508280         ;; wasm stub: WasmStackGuard
0xd7595084ec    2c  ebf4           jmp 0xd7595084e2  <+0x22>
0xd7595084ee    2e  6690           nop

Source positions:
 pc offset  position
        27         0  statement

Safepoints (size = 21)
0xd7595084ec    2c  00 (sp -> fp)

RelocInfo (size = 1)
0xd7595084e8  wasm stub call

--- End code ---
0xd759508431    31  488be5         REX.W movq rsp,rbp
0xd759508434    34  5d             pop rbp
0xd759508435    35  c3             retl
0xd759508436    36  50             push rax
0xd759508437    37  52             push rdx
0xd759508438    38  e843feffff     call 0xd759508280         ;; wasm stub: WasmStackGuard
0xd75950843d    3d  5a             pop rdx
0xd75950843e    3e  58             pop rax
0xd75950843f    3f  ebe1           jmp 0xd759508422  <+0x22>
0xd759508441    41  0f1f00         nop

Source positions:
 pc offset  position
        22         1  statement
        38         0  statement

Safepoints (size = 21)
0xd8595083ffffffffff  0000 (sp -> fp)

RelocInfo (size = 3)
0xd75950842d  internal wasm call
0xd759508439  wasm stub call

--- End code ---
--- WebAssembly code ---
index: 3
kind: wasm function
compiler: TurboFan
Body (size = 96 = 65 + 31 padding)
Instructions (size = 44)
0xd759508520     0  55             push rbp
0xd759508521     1  4889e5         REX.W movq rbp,rsp
0xd759508524     4  6a0a           push 0xa
0xd759508526     6  56             push rsi
0xd759508527     7  488b5e2f       REX.W movq rbx,[rsi+0x2f]
0xd75950852b     b  483b23         REX.W cmpq rsp,[rbx]
0xd75950852e     e  0f860a000000   jna 0xd75950853e  <+0x1e>
0xd759508534    14  e8ccfaffff     call 0xd759508005         ;; internal wasm call
0xd759508539    19  488be5         REX.W movq rsp,rbp
0xd75950853c    1c  5d             pop rbp
0xd75950853d    1d  c3             retl
0xd75950853e    1e  e83dfdffff     call 0xd759508280         ;; wasm stub: WasmStackGuard
0xd759508543    23  488b75f0       REX.W movq rsi,[rbp-0x10]
0xd759508547    27  ebeb           jmp 0xd759508534  <+0x14>
0xd759508549    29  90             nop
0xd75950854a    2a  6690           nop

Source positions:
 pc offset  position
        14         1
        1e         0

Safepoints (size = 21)
0xd85950851fffffffff  0000 (sp -> fp)

RelocInfo (size = 3)
0xd759508535  internal wasm call
0xd75950853f  wasm stub call

--- End code ---
--- WebAssembly code ---
index: 2
kind: wasm function
compiler: TurboFan
Body (size = 32 = 24 + 8 padding)
Instructions (size = 16)
0xd759508580     0  55             push rbp
0xd759508581     1  4889e5         REX.W movq rbp,rsp
0xd759508584     4  6a0a           push 0xa
0xd759508586     6  56             push rsi
0xd759508587     7  8d0440         leal rax,[rax+rax*2]
0xd75950858a     a  488be5         REX.W movq rsp,rbp
0xd75950858d     d  5d             pop rbp
0xd75950858e     e  c3             retl
0xd75950858f     f  90             nop

Safepoints (size = 8)

RelocInfo (size = 0)

--- End code ---
--- WebAssembly code ---
index: 1
kind: wasm function
compiler: TurboFan
Body (size = 96 = 69 + 27 padding)
Instructions (size = 48)
0xd7595085a0     0  55             push rbp
0xd7595085a1     1  4889e5         REX.W movq rbp,rsp
0xd7595085a4     4  6a0a           push 0xa
0xd7595085a6     6  56             push rsi
0xd7595085a7     7  488b5e2f       REX.W movq rbx,[rsi+0x2f]
0xd7595085ab     b  483b23         REX.W cmpq rsp,[rbx]
0xd7595085ae     e  0f860f000000   jna 0xd7595085c3  <+0x23>
0xd7595085b4    14  b80a000000     movl rax,0xa
0xd7595085b9    19  e84cfaffff     call 0xd75950800a         ;; internal wasm call
0xd7595085be    1e  488be5         REX.W movq rsp,rbp
0xd7595085c1    21  5d             pop rbp
0xd7595085c2    22  c3             retl
0xd7595085c3    23  e8b8fcffff     call 0xd759508280         ;; wasm stub: WasmStackGuard
0xd7595085c8    28  488b75f0       REX.W movq rsi,[rbp-0x10]
0xd7595085cc    2c  ebe6           jmp 0xd7595085b4  <+0x14>
0xd7595085ce    2e  90             nop
0xd7595085cf    2f  90             nop

Source positions:
 pc offset  position
        14         3
        23         0

Safepoints (size = 21)
0xd85950859fffffffff  0000 (sp -> fp)

RelocInfo (size = 3)
0xd7595085ba  internal wasm call
0xd7595085c4  wasm stub call

--- End code ---
--- WebAssembly code ---
index: 0
kind: wasm function
compiler: TurboFan
Body (size = 32 = 24 + 8 padding)
Instructions (size = 16)
0xd759508600     0  55             push rbp
0xd759508601     1  4889e5         REX.W movq rbp,rsp
0xd759508604     4  6a0a           push 0xa
0xd759508606     6  56             push rsi
0xd759508607     7  488be5         REX.W movq rsp,rbp
0xd75950860a     a  5d             pop rbp
0xd75950860b     b  c3             retl
0xd75950860c     c  90             nop
0xd75950860d     d  0f1f00         nop

Safepoints (size = 8)

RelocInfo (size = 0)

--- End code ---
